target datalayout = "e-m:e-p270:32:32-p271:32:32-p272:64:64-i64:64-i128:128-f80:128-n8:16:32:64-S128"
target triple = "x86_64-pc-linux-gnu"

%struct.Mem_Fixed_t_ = type { i32, i32, i32, i32, ptr, i32, i32, i32, ptr, i32, i32 }

; Function Attrs: nounwind uwtable
define void @Mem_FixedRestart(ptr noundef %0) #0 {
  %2 = alloca ptr, align 8
  %3 = alloca i32, align 4
  %4 = alloca ptr, align 8
  store ptr %0, ptr %2, align 8, !tbaa !7
  call void @llvm.lifetime.start.p0(i64 4, ptr %3) #7
  call void @llvm.lifetime.start.p0(i64 8, ptr %4) #7
  store i32 1, ptr %3, align 4, !tbaa !3
  br label %5

5:                                                ; preds = %36, %1
  %6 = load i32, ptr %3, align 4, !tbaa !3
  %7 = load ptr, ptr %2, align 8, !tbaa !7
  %8 = getelementptr inbounds nuw %struct.Mem_Fixed_t_, ptr %7, i32 0, i32 7
  %9 = load i32, ptr %8, align 8, !tbaa !19
  %10 = icmp slt i32 %6, %9
  br i1 %10, label %11, label %39

11:                                               ; preds = %5
  %12 = load ptr, ptr %2, align 8, !tbaa !7
  %13 = getelementptr inbounds nuw %struct.Mem_Fixed_t_, ptr %12, i32 0, i32 8
  %14 = load ptr, ptr %13, align 8, !tbaa !20
  %15 = load i32, ptr %3, align 4, !tbaa !3
  %16 = sext i32 %15 to i64
  %17 = getelementptr inbounds ptr, ptr %14, i64 %16
  %18 = load ptr, ptr %17, align 8, !tbaa !24
  %19 = icmp ne ptr %18, null
  br i1 %19, label %20, label %34

20:                                               ; preds = %11
  %21 = load ptr, ptr %2, align 8, !tbaa !7
  %22 = getelementptr inbounds nuw %struct.Mem_Fixed_t_, ptr %21, i32 0, i32 8
  %23 = load ptr, ptr %22, align 8, !tbaa !20
  %24 = load i32, ptr %3, align 4, !tbaa !3
  %25 = sext i32 %24 to i64
  %26 = getelementptr inbounds ptr, ptr %23, i64 %25
  %27 = load ptr, ptr %26, align 8, !tbaa !24
  call void @free(ptr noundef %27) #7
  %28 = load ptr, ptr %2, align 8, !tbaa !7
  %29 = getelementptr inbounds nuw %struct.Mem_Fixed_t_, ptr %28, i32 0, i32 8
  %30 = load ptr, ptr %29, align 8, !tbaa !20
  %31 = load i32, ptr %3, align 4, !tbaa !3
  %32 = sext i32 %31 to i64
  %33 = getelementptr inbounds ptr, ptr %30, i64 %32
  store ptr null, ptr %33, align 8, !tbaa !24
  br label %35

34:                                               ; preds = %11
  br label %35

35:                                               ; preds = %34, %20
  br label %36

36:                                               ; preds = %35
  %37 = load i32, ptr %3, align 4, !tbaa !3
  %38 = add nsw i32 %37, 1
  store i32 %38, ptr %3, align 4, !tbaa !3
  br label %5, !llvm.loop !38

39:                                               ; preds = %5
  %40 = load ptr, ptr %2, align 8, !tbaa !7
  %41 = getelementptr inbounds nuw %struct.Mem_Fixed_t_, ptr %40, i32 0, i32 7
  store i32 1, ptr %41, align 8, !tbaa !19
  %42 = load ptr, ptr %2, align 8, !tbaa !7
  %43 = getelementptr inbounds nuw %struct.Mem_Fixed_t_, ptr %42, i32 0, i32 8
  %44 = load ptr, ptr %43, align 8, !tbaa !20
  %45 = getelementptr inbounds ptr, ptr %44, i64 0
  %46 = load ptr, ptr %45, align 8, !tbaa !24
  store ptr %46, ptr %4, align 8, !tbaa !24
  store i32 1, ptr %3, align 4, !tbaa !3
  br label %47

47:                                               ; preds = %67, %39
  %48 = load i32, ptr %3, align 4, !tbaa !3
  %49 = load ptr, ptr %2, align 8, !tbaa !7
  %50 = getelementptr inbounds nuw %struct.Mem_Fixed_t_, ptr %49, i32 0, i32 5
  %51 = load i32, ptr %50, align 8, !tbaa !17
  %52 = icmp slt i32 %48, %51
  br i1 %52, label %53, label %70

53:                                               ; preds = %47
  %54 = load ptr, ptr %4, align 8, !tbaa !24
  %55 = load ptr, ptr %2, align 8, !tbaa !7
  %56 = getelementptr inbounds nuw %struct.Mem_Fixed_t_, ptr %55, i32 0, i32 0
  %57 = load i32, ptr %56, align 8, !tbaa !10
  %58 = sext i32 %57 to i64
  %59 = getelementptr inbounds i8, ptr %54, i64 %58
  %60 = load ptr, ptr %4, align 8, !tbaa !24
  store ptr %59, ptr %60, align 8, !tbaa !24
  %61 = load ptr, ptr %2, align 8, !tbaa !7
  %62 = getelementptr inbounds nuw %struct.Mem_Fixed_t_, ptr %61, i32 0, i32 0
  %63 = load i32, ptr %62, align 8, !tbaa !10
  %64 = load ptr, ptr %4, align 8, !tbaa !24
  %65 = sext i32 %63 to i64
  %66 = getelementptr inbounds i8, ptr %64, i64 %65
  store ptr %66, ptr %4, align 8, !tbaa !24
  br label %67

67:                                               ; preds = %53
  %68 = load i32, ptr %3, align 4, !tbaa !3
  %69 = add nsw i32 %68, 1
  store i32 %69, ptr %3, align 4, !tbaa !3
  br label %47, !llvm.loop !39

70:                                               ; preds = %47
  %71 = load ptr, ptr %4, align 8, !tbaa !24
  store ptr null, ptr %71, align 8, !tbaa !24
  %72 = load ptr, ptr %2, align 8, !tbaa !7
  %73 = getelementptr inbounds nuw %struct.Mem_Fixed_t_, ptr %72, i32 0, i32 8
  %74 = load ptr, ptr %73, align 8, !tbaa !20
  %75 = getelementptr inbounds ptr, ptr %74, i64 0
  %76 = load ptr, ptr %75, align 8, !tbaa !24
  %77 = load ptr, ptr %2, align 8, !tbaa !7
  %78 = getelementptr inbounds nuw %struct.Mem_Fixed_t_, ptr %77, i32 0, i32 4
  store ptr %76, ptr %78, align 8, !tbaa !16
  %79 = load ptr, ptr %2, align 8, !tbaa !7
  %80 = getelementptr inbounds nuw %struct.Mem_Fixed_t_, ptr %79, i32 0, i32 0
  %81 = load i32, ptr %80, align 8, !tbaa !10
  %82 = load ptr, ptr %2, align 8, !tbaa !7
  %83 = getelementptr inbounds nuw %struct.Mem_Fixed_t_, ptr %82, i32 0, i32 5
  %84 = load i32, ptr %83, align 8, !tbaa !17
  %85 = mul nsw i32 %81, %84
  %86 = load ptr, ptr %2, align 8, !tbaa !7
  %87 = getelementptr inbounds nuw %struct.Mem_Fixed_t_, ptr %86, i32 0, i32 10
  store i32 %85, ptr %87, align 4, !tbaa !22
  %88 = load ptr, ptr %2, align 8, !tbaa !7
  %89 = getelementptr inbounds nuw %struct.Mem_Fixed_t_, ptr %88, i32 0, i32 9
  store i32 0, ptr %89, align 8, !tbaa !21
  %90 = load ptr, ptr %2, align 8, !tbaa !7
  %91 = getelementptr inbounds nuw %struct.Mem_Fixed_t_, ptr %90, i32 0, i32 5
  %92 = load i32, ptr %91, align 8, !tbaa !17
  %93 = load ptr, ptr %2, align 8, !tbaa !7
  %94 = getelementptr inbounds nuw %struct.Mem_Fixed_t_, ptr %93, i32 0, i32 1
  store i32 %92, ptr %94, align 4, !tbaa !14
  %95 = load ptr, ptr %2, align 8, !tbaa !7
  %96 = getelementptr inbounds nuw %struct.Mem_Fixed_t_, ptr %95, i32 0, i32 2
  store i32 0, ptr %96, align 8, !tbaa !15
  call void @llvm.lifetime.end.p0(i64 8, ptr %4) #7
  call void @llvm.lifetime.end.p0(i64 4, ptr %3) #7
  ret void
}