; Function Attrs: nounwind uwtable
define void @Mem_FixedRestart(ptr noundef captures(none) %0) local_unnamed_addr #2 {
  %2 = getelementptr inbounds nuw i8, ptr %0, i64 32
  %3 = load i32, ptr %2, align 8, !tbaa !12
  %4 = icmp sgt i32 %3, 1
  %5 = getelementptr inbounds nuw i8, ptr %0, i64 40
  %.pre = load ptr, ptr %5, align 8, !tbaa !13
  br i1 %4, label %.lr.ph, label %._crit_edge

.lr.ph:                                           ; preds = %1, %13
  %6 = phi i32 [ %14, %13 ], [ %3, %1 ]
  %7 = phi ptr [ %15, %13 ], [ %.pre, %1 ]
  %indvars.iv = phi i64 [ %indvars.iv.next, %13 ], [ 1, %1 ]
  %8 = getelementptr inbounds nuw ptr, ptr %7, i64 %indvars.iv
  %9 = load ptr, ptr %8, align 8, !tbaa !19
  %.not = icmp eq ptr %9, null
  br i1 %.not, label %13, label %10

10:                                               ; preds = %.lr.ph
  tail call void @free(ptr noundef nonnull %9) #15
  %11 = load ptr, ptr %5, align 8, !tbaa !13
  %12 = getelementptr inbounds nuw ptr, ptr %11, i64 %indvars.iv
  store ptr null, ptr %12, align 8, !tbaa !19
  %.pre39 = load i32, ptr %2, align 8, !tbaa !12
  br label %13

13:                                               ; preds = %10, %.lr.ph
  %14 = phi i32 [ %.pre39, %10 ], [ %6, %.lr.ph ]
  %15 = phi ptr [ %11, %10 ], [ %7, %.lr.ph ]
  %indvars.iv.next = add nuw nsw i64 %indvars.iv, 1
  %16 = sext i32 %14 to i64
  %17 = icmp slt i64 %indvars.iv.next, %16
  br i1 %17, label %.lr.ph, label %._crit_edge, !llvm.loop !33

._crit_edge:                                      ; preds = %13, %1
  %18 = phi ptr [ %.pre, %1 ], [ %15, %13 ]
  store i32 1, ptr %2, align 8, !tbaa !12
  %19 = load ptr, ptr %18, align 8, !tbaa !19
  %20 = getelementptr inbounds nuw i8, ptr %0, i64 24
  %21 = load i32, ptr %20, align 8, !tbaa !16
  %22 = icmp sgt i32 %21, 1
  %.pre41 = load i32, ptr %0, align 8, !tbaa !3
  br i1 %22, label %.lr.ph35, label %._crit_edge36

.lr.ph35:                                         ; preds = %._crit_edge
  %23 = sext i32 %.pre41 to i64
  br label %24

24:                                               ; preds = %.lr.ph35, %24
  %.033 = phi ptr [ %19, %.lr.ph35 ], [ %25, %24 ]
  %.132 = phi i32 [ 1, %.lr.ph35 ], [ %26, %24 ]
  %25 = getelementptr inbounds i8, ptr %.033, i64 %23
  store ptr %25, ptr %.033, align 8, !tbaa !19
  %26 = add nuw nsw i32 %.132, 1
  %exitcond.not = icmp eq i32 %26, %21
  br i1 %exitcond.not, label %._crit_edge36, label %24, !llvm.loop !34

._crit_edge36:                                    ; preds = %24, %._crit_edge
  %.0.lcssa = phi ptr [ %19, %._crit_edge ], [ %25, %24 ]
  store ptr null, ptr %.0.lcssa, align 8, !tbaa !19
  %27 = load ptr, ptr %18, align 8, !tbaa !19
  %28 = getelementptr inbounds nuw i8, ptr %0, i64 16
  store ptr %27, ptr %28, align 8, !tbaa !31
  %29 = mul nsw i32 %.pre41, %21
  %30 = getelementptr inbounds nuw i8, ptr %0, i64 52
  store i32 %29, ptr %30, align 4, !tbaa !15
  %31 = getelementptr inbounds nuw i8, ptr %0, i64 48
  store i32 0, ptr %31, align 8, !tbaa !14
  %32 = getelementptr inbounds nuw i8, ptr %0, i64 4
  store i32 %21, ptr %32, align 4, !tbaa !30
  %33 = getelementptr inbounds nuw i8, ptr %0, i64 8
  store i32 0, ptr %33, align 8, !tbaa !17
  ret void
}